target datalayout = "e-m:e-p270:32:32-p271:32:32-p272:64:64-i64:64-i128:128-f80:128-n8:16:32:64-S128"
target triple = "x86_64-pc-linux-gnu"

%struct.lean_object = type { i32, i32 }
%struct.lean_ctor_object = type { %struct.lean_object, [0 x ptr] }

@l___private_Init_System_IOError_0__IO_Error_downCaseFirst___closed__1 = internal global ptr null, align 8
@l_IO_Error_fopenErrorToString___closed__1 = internal global ptr null, align 8
@l_IO_Error_fopenErrorToString___closed__2 = internal global ptr null, align 8
@l_IO_Error_fopenErrorToString___closed__3 = internal global ptr null, align 8

; Function Attrs: inlinehint nounwind uwtable
define internal zeroext i1 @lean_is_st(ptr noundef %0) #0 {
  %2 = alloca ptr, align 8
  store ptr %0, ptr %2, align 8, !tbaa !8
  %3 = load ptr, ptr %2, align 8, !tbaa !8
  %4 = getelementptr inbounds nuw %struct.lean_object, ptr %3, i32 0, i32 0
  %5 = load i32, ptr %4, align 4, !tbaa !13
  %6 = icmp sgt i32 %5, 0
  ret i1 %6
}

; Function Attrs: inlinehint nounwind uwtable
define internal ptr @lean_to_ctor(ptr noundef %0) #0 {
  %2 = alloca ptr, align 8
  store ptr %0, ptr %2, align 8, !tbaa !8
  %3 = load ptr, ptr %2, align 8, !tbaa !8
  ret ptr %3
}

; Function Attrs: inlinehint nounwind uwtable
define internal ptr @lean_box(i64 noundef %0) #0 {
  %2 = alloca i64, align 8
  store i64 %0, ptr %2, align 8, !tbaa !10
  %3 = load i64, ptr %2, align 8, !tbaa !10
  %4 = shl i64 %3, 1
  %5 = or i64 %4, 1
  %6 = inttoptr i64 %5 to ptr
  ret ptr %6
}

; Function Attrs: inlinehint nounwind uwtable
define internal void @lean_inc_ref(ptr noundef %0) #0 {
  %2 = alloca ptr, align 8
  store ptr %0, ptr %2, align 8, !tbaa !8
  %3 = load ptr, ptr %2, align 8, !tbaa !8
  %4 = call zeroext i1 @lean_is_st(ptr noundef %3)
  %5 = zext i1 %4 to i64
  %6 = call i64 @llvm.expect.i64(i64 %5, i64 1)
  %7 = icmp ne i64 %6, 0
  br i1 %7, label %8, label %13

8:                                                ; preds = %1
  %9 = load ptr, ptr %2, align 8, !tbaa !8
  %10 = getelementptr inbounds nuw %struct.lean_object, ptr %9, i32 0, i32 0
  %11 = load i32, ptr %10, align 4, !tbaa !13
  %12 = add i32 %11, 1
  store i32 %12, ptr %10, align 4, !tbaa !13
  br label %21

13:                                               ; preds = %1
  %14 = load ptr, ptr %2, align 8, !tbaa !8
  %15 = getelementptr inbounds nuw %struct.lean_object, ptr %14, i32 0, i32 0
  %16 = load i32, ptr %15, align 4, !tbaa !13
  %17 = icmp ne i32 %16, 0
  br i1 %17, label %18, label %20

18:                                               ; preds = %13
  %19 = load ptr, ptr %2, align 8, !tbaa !8
  call void @lean_inc_ref_cold(ptr noundef %19)
  br label %20

20:                                               ; preds = %18, %13
  br label %21

21:                                               ; preds = %20, %8
  ret void
}

; Function Attrs: inlinehint nounwind uwtable
define internal ptr @lean_ctor_obj_cptr(ptr noundef %0) #0 {
  %2 = alloca ptr, align 8
  store ptr %0, ptr %2, align 8, !tbaa !8
  %3 = load ptr, ptr %2, align 8, !tbaa !8
  %4 = call ptr @lean_to_ctor(ptr noundef %3)
  %5 = getelementptr inbounds nuw %struct.lean_ctor_object, ptr %4, i32 0, i32 1
  %6 = getelementptr inbounds [0 x ptr], ptr %5, i64 0, i64 0
  ret ptr %6
}

; Function Attrs: alwaysinline nounwind uwtable
define internal void @lean_dec_ref(ptr noundef %0) #3 {
  %2 = alloca ptr, align 8
  store ptr %0, ptr %2, align 8, !tbaa !8
  %3 = load ptr, ptr %2, align 8, !tbaa !8
  %4 = getelementptr inbounds nuw %struct.lean_object, ptr %3, i32 0, i32 0
  %5 = load i32, ptr %4, align 4, !tbaa !13
  %6 = icmp sgt i32 %5, 1
  %7 = zext i1 %6 to i32
  %8 = sext i32 %7 to i64
  %9 = call i64 @llvm.expect.i64(i64 %8, i64 1)
  %10 = icmp ne i64 %9, 0
  br i1 %10, label %11, label %16

11:                                               ; preds = %1
  %12 = load ptr, ptr %2, align 8, !tbaa !8
  %13 = getelementptr inbounds nuw %struct.lean_object, ptr %12, i32 0, i32 0
  %14 = load i32, ptr %13, align 4, !tbaa !13
  %15 = add i32 %14, -1
  store i32 %15, ptr %13, align 4, !tbaa !13
  br label %24

16:                                               ; preds = %1
  %17 = load ptr, ptr %2, align 8, !tbaa !8
  %18 = getelementptr inbounds nuw %struct.lean_object, ptr %17, i32 0, i32 0
  %19 = load i32, ptr %18, align 4, !tbaa !13
  %20 = icmp ne i32 %19, 0
  br i1 %20, label %21, label %23

21:                                               ; preds = %16
  %22 = load ptr, ptr %2, align 8, !tbaa !8
  call void @lean_dec_ref_cold(ptr noundef %22)
  br label %23

23:                                               ; preds = %21, %16
  br label %24

24:                                               ; preds = %23, %11
  ret void
}

; Function Attrs: inlinehint nounwind uwtable
define internal ptr @lean_usize_to_nat(i64 noundef %0) #0 {
  %2 = alloca ptr, align 8
  %3 = alloca i64, align 8
  store i64 %0, ptr %3, align 8, !tbaa !10
  %4 = load i64, ptr %3, align 8, !tbaa !10
  %5 = icmp ule i64 %4, 9223372036854775807
  %6 = zext i1 %5 to i32
  %7 = sext i32 %6 to i64
  %8 = call i64 @llvm.expect.i64(i64 %7, i64 1)
  %9 = icmp ne i64 %8, 0
  br i1 %9, label %10, label %13

10:                                               ; preds = %1
  %11 = load i64, ptr %3, align 8, !tbaa !10
  %12 = call ptr @lean_box(i64 noundef %11)
  store ptr %12, ptr %2, align 8
  br label %16

13:                                               ; preds = %1
  %14 = load i64, ptr %3, align 8, !tbaa !10
  %15 = call ptr @lean_big_usize_to_nat(i64 noundef %14)
  store ptr %15, ptr %2, align 8
  br label %16

16:                                               ; preds = %13, %10
  %17 = load ptr, ptr %2, align 8
  ret ptr %17
}

; Function Attrs: inlinehint nounwind uwtable
define internal zeroext i8 @lean_ptr_tag(ptr noundef %0) #0 {
  %2 = alloca ptr, align 8
  store ptr %0, ptr %2, align 8, !tbaa !8
  %3 = load ptr, ptr %2, align 8, !tbaa !8
  %4 = getelementptr inbounds nuw %struct.lean_object, ptr %3, i32 0, i32 1
  %5 = load i32, ptr %4, align 4
  %6 = lshr i32 %5, 24
  %7 = trunc i32 %6 to i8
  ret i8 %7
}

; Function Attrs: inlinehint nounwind uwtable
define internal i64 @lean_unbox(ptr noundef %0) #0 {
  %2 = alloca ptr, align 8
  store ptr %0, ptr %2, align 8, !tbaa !8
  %3 = load ptr, ptr %2, align 8, !tbaa !8
  %4 = ptrtoint ptr %3 to i64
  %5 = lshr i64 %4, 1
  ret i64 %5
}

; Function Attrs: alwaysinline nounwind uwtable
define internal zeroext i1 @lean_is_scalar(ptr noundef %0) #3 {
  %2 = alloca ptr, align 8
  store ptr %0, ptr %2, align 8, !tbaa !8
  %3 = load ptr, ptr %2, align 8, !tbaa !8
  %4 = ptrtoint ptr %3 to i64
  %5 = and i64 %4, 1
  %6 = icmp eq i64 %5, 1
  ret i1 %6
}

; Function Attrs: alwaysinline nounwind uwtable
define internal void @lean_inc(ptr noundef %0) #3 {
  %2 = alloca ptr, align 8
  store ptr %0, ptr %2, align 8, !tbaa !8
  %3 = load ptr, ptr %2, align 8, !tbaa !8
  %4 = call zeroext i1 @lean_is_scalar(ptr noundef %3)
  br i1 %4, label %7, label %5

5:                                                ; preds = %1
  %6 = load ptr, ptr %2, align 8, !tbaa !8
  call void @lean_inc_ref(ptr noundef %6)
  br label %7

7:                                                ; preds = %5, %1
  ret void
}

; Function Attrs: inlinehint nounwind uwtable
define internal ptr @lean_ctor_get(ptr noundef %0, i32 noundef %1) #0 {
  %3 = alloca ptr, align 8
  %4 = alloca i32, align 4
  store ptr %0, ptr %3, align 8, !tbaa !8
  store i32 %1, ptr %4, align 4, !tbaa !4
  %5 = load ptr, ptr %3, align 8, !tbaa !8
  %6 = call ptr @lean_ctor_obj_cptr(ptr noundef %5)
  %7 = load i32, ptr %4, align 4, !tbaa !4
  %8 = zext i32 %7 to i64
  %9 = getelementptr inbounds nuw ptr, ptr %6, i64 %8
  %10 = load ptr, ptr %9, align 8, !tbaa !8
  ret ptr %10
}

; Function Attrs: alwaysinline nounwind uwtable
define internal void @lean_dec(ptr noundef %0) #3 {
  %2 = alloca ptr, align 8
  store ptr %0, ptr %2, align 8, !tbaa !8
  %3 = load ptr, ptr %2, align 8, !tbaa !8
  %4 = call zeroext i1 @lean_is_scalar(ptr noundef %3)
  br i1 %4, label %7, label %5

5:                                                ; preds = %1
  %6 = load ptr, ptr %2, align 8, !tbaa !8
  call void @lean_dec_ref(ptr noundef %6)
  br label %7

7:                                                ; preds = %5, %1
  ret void
}

; Function Attrs: inlinehint nounwind uwtable
define internal ptr @lean_uint32_to_nat(i32 noundef %0) #0 {
  %2 = alloca i32, align 4
  store i32 %0, ptr %2, align 4, !tbaa !4
  %3 = load i32, ptr %2, align 4, !tbaa !4
  %4 = zext i32 %3 to i64
  %5 = call ptr @lean_usize_to_nat(i64 noundef %4)
  ret ptr %5
}

; Function Attrs: inlinehint nounwind uwtable
define internal ptr @lean_unsigned_to_nat(i32 noundef %0) #0 {
  %2 = alloca i32, align 4
  store i32 %0, ptr %2, align 4, !tbaa !4
  %3 = load i32, ptr %2, align 4, !tbaa !4
  %4 = zext i32 %3 to i64
  %5 = call ptr @lean_usize_to_nat(i64 noundef %4)
  ret ptr %5
}

; Function Attrs: inlinehint nounwind uwtable
define internal i32 @lean_obj_tag(ptr noundef %0) #0 {
  %2 = alloca i32, align 4
  %3 = alloca ptr, align 8
  store ptr %0, ptr %3, align 8, !tbaa !8
  %4 = load ptr, ptr %3, align 8, !tbaa !8
  %5 = call zeroext i1 @lean_is_scalar(ptr noundef %4)
  br i1 %5, label %6, label %10

6:                                                ; preds = %1
  %7 = load ptr, ptr %3, align 8, !tbaa !8
  %8 = call i64 @lean_unbox(ptr noundef %7)
  %9 = trunc i64 %8 to i32
  store i32 %9, ptr %2, align 4
  br label %14

10:                                               ; preds = %1
  %11 = load ptr, ptr %3, align 8, !tbaa !8
  %12 = call zeroext i8 @lean_ptr_tag(ptr noundef %11)
  %13 = zext i8 %12 to i32
  store i32 %13, ptr %2, align 4
  br label %14

14:                                               ; preds = %10, %6
  %15 = load i32, ptr %2, align 4
  ret i32 %15
}

; Function Attrs: nounwind uwtable
define ptr @l_IO_Error_fopenErrorToString(ptr noundef %0, ptr noundef %1, i32 noundef %2, ptr noundef %3) #1 {
  %5 = alloca ptr, align 8
  %6 = alloca ptr, align 8
  %7 = alloca ptr, align 8
  %8 = alloca i32, align 4
  %9 = alloca ptr, align 8
  %10 = alloca ptr, align 8
  %11 = alloca ptr, align 8
  %12 = alloca ptr, align 8
  %13 = alloca ptr, align 8
  %14 = alloca ptr, align 8
  %15 = alloca ptr, align 8
  %16 = alloca ptr, align 8
  %17 = alloca ptr, align 8
  %18 = alloca ptr, align 8
  %19 = alloca ptr, align 8
  %20 = alloca ptr, align 8
  %21 = alloca ptr, align 8
  %22 = alloca ptr, align 8
  %23 = alloca ptr, align 8
  %24 = alloca ptr, align 8
  %25 = alloca ptr, align 8
  %26 = alloca ptr, align 8
  %27 = alloca ptr, align 8
  %28 = alloca ptr, align 8
  %29 = alloca ptr, align 8
  %30 = alloca ptr, align 8
  %31 = alloca ptr, align 8
  %32 = alloca ptr, align 8
  %33 = alloca ptr, align 8
  %34 = alloca ptr, align 8
  %35 = alloca ptr, align 8
  %36 = alloca ptr, align 8
  store ptr %0, ptr %6, align 8, !tbaa !8
  store ptr %1, ptr %7, align 8, !tbaa !8
  store i32 %2, ptr %8, align 4, !tbaa !4
  store ptr %3, ptr %9, align 8, !tbaa !8
  br label %37

37:                                               ; preds = %4
  %38 = load ptr, ptr %9, align 8, !tbaa !8
  %39 = call i32 @lean_obj_tag(ptr noundef %38)
  %40 = icmp eq i32 %39, 0
  br i1 %40, label %41, label %68

41:                                               ; preds = %37
  call void @llvm.lifetime.start.p0(i64 8, ptr %10) #7
  call void @llvm.lifetime.start.p0(i64 8, ptr %11) #7
  call void @llvm.lifetime.start.p0(i64 8, ptr %12) #7
  call void @llvm.lifetime.start.p0(i64 8, ptr %13) #7
  call void @llvm.lifetime.start.p0(i64 8, ptr %14) #7
  call void @llvm.lifetime.start.p0(i64 8, ptr %15) #7
  call void @llvm.lifetime.start.p0(i64 8, ptr %16) #7
  call void @llvm.lifetime.start.p0(i64 8, ptr %17) #7
  call void @llvm.lifetime.start.p0(i64 8, ptr %18) #7
  call void @llvm.lifetime.start.p0(i64 8, ptr %19) #7
  call void @llvm.lifetime.start.p0(i64 8, ptr %20) #7
  %42 = call ptr @lean_unsigned_to_nat(i32 noundef 0)
  store ptr %42, ptr %10, align 8, !tbaa !8
  %43 = load ptr, ptr @l___private_Init_System_IOError_0__IO_Error_downCaseFirst___closed__1, align 8, !tbaa !8
  store ptr %43, ptr %11, align 8, !tbaa !8
  %44 = load ptr, ptr %6, align 8, !tbaa !8
  %45 = load ptr, ptr %10, align 8, !tbaa !8
  %46 = load ptr, ptr %11, align 8, !tbaa !8
  %47 = call ptr @l_String_modify(ptr noundef %44, ptr noundef %45, ptr noundef %46)
  store ptr %47, ptr %12, align 8, !tbaa !8
  %48 = load ptr, ptr @l_IO_Error_fopenErrorToString___closed__1, align 8, !tbaa !8
  store ptr %48, ptr %13, align 8, !tbaa !8
  %49 = load ptr, ptr %12, align 8, !tbaa !8
  %50 = load ptr, ptr %13, align 8, !tbaa !8
  %51 = call ptr @lean_string_append(ptr noundef %49, ptr noundef %50)
  store ptr %51, ptr %14, align 8, !tbaa !8
  %52 = load i32, ptr %8, align 4, !tbaa !4
  %53 = call ptr @lean_uint32_to_nat(i32 noundef %52)
  store ptr %53, ptr %15, align 8, !tbaa !8
  %54 = load ptr, ptr %15, align 8, !tbaa !8
  %55 = call ptr @l___private_Init_Data_Repr_0__Nat_reprFast(ptr noundef %54)
  store ptr %55, ptr %16, align 8, !tbaa !8
  %56 = load ptr, ptr %14, align 8, !tbaa !8
  %57 = load ptr, ptr %16, align 8, !tbaa !8
  %58 = call ptr @lean_string_append(ptr noundef %56, ptr noundef %57)
  store ptr %58, ptr %17, align 8, !tbaa !8
  %59 = load ptr, ptr %16, align 8, !tbaa !8
  call void @lean_dec(ptr noundef %59)
  %60 = load ptr, ptr @l_IO_Error_fopenErrorToString___closed__2, align 8, !tbaa !8
  store ptr %60, ptr %18, align 8, !tbaa !8
  %61 = load ptr, ptr %17, align 8, !tbaa !8
  %62 = load ptr, ptr %18, align 8, !tbaa !8
  %63 = call ptr @lean_string_append(ptr noundef %61, ptr noundef %62)
  store ptr %63, ptr %19, align 8, !tbaa !8
  %64 = load ptr, ptr %19, align 8, !tbaa !8
  %65 = load ptr, ptr %7, align 8, !tbaa !8
  %66 = call ptr @lean_string_append(ptr noundef %64, ptr noundef %65)
  store ptr %66, ptr %20, align 8, !tbaa !8
  %67 = load ptr, ptr %20, align 8, !tbaa !8
  store ptr %67, ptr %5, align 8
  call void @llvm.lifetime.end.p0(i64 8, ptr %20) #7
  call void @llvm.lifetime.end.p0(i64 8, ptr %19) #7
  call void @llvm.lifetime.end.p0(i64 8, ptr %18) #7
  call void @llvm.lifetime.end.p0(i64 8, ptr %17) #7
  call void @llvm.lifetime.end.p0(i64 8, ptr %16) #7
  call void @llvm.lifetime.end.p0(i64 8, ptr %15) #7
  call void @llvm.lifetime.end.p0(i64 8, ptr %14) #7
  call void @llvm.lifetime.end.p0(i64 8, ptr %13) #7
  call void @llvm.lifetime.end.p0(i64 8, ptr %12) #7
  call void @llvm.lifetime.end.p0(i64 8, ptr %11) #7
  call void @llvm.lifetime.end.p0(i64 8, ptr %10) #7
  br label %111

68:                                               ; preds = %37
  call void @llvm.lifetime.start.p0(i64 8, ptr %21) #7
  call void @llvm.lifetime.start.p0(i64 8, ptr %22) #7
  call void @llvm.lifetime.start.p0(i64 8, ptr %23) #7
  call void @llvm.lifetime.start.p0(i64 8, ptr %24) #7
  call void @llvm.lifetime.start.p0(i64 8, ptr %25) #7
  call void @llvm.lifetime.start.p0(i64 8, ptr %26) #7
  call void @llvm.lifetime.start.p0(i64 8, ptr %27) #7
  call void @llvm.lifetime.start.p0(i64 8, ptr %28) #7
  call void @llvm.lifetime.start.p0(i64 8, ptr %29) #7
  call void @llvm.lifetime.start.p0(i64 8, ptr %30) #7
  call void @llvm.lifetime.start.p0(i64 8, ptr %31) #7
  call void @llvm.lifetime.start.p0(i64 8, ptr %32) #7
  call void @llvm.lifetime.start.p0(i64 8, ptr %33) #7
  call void @llvm.lifetime.start.p0(i64 8, ptr %34) #7
  call void @llvm.lifetime.start.p0(i64 8, ptr %35) #7
  call void @llvm.lifetime.start.p0(i64 8, ptr %36) #7
  %69 = load ptr, ptr %9, align 8, !tbaa !8
  %70 = call ptr @lean_ctor_get(ptr noundef %69, i32 noundef 0)
  store ptr %70, ptr %21, align 8, !tbaa !8
  %71 = load ptr, ptr %21, align 8, !tbaa !8
  call void @lean_inc(ptr noundef %71)
  %72 = load ptr, ptr %9, align 8, !tbaa !8
  call void @lean_dec(ptr noundef %72)
  %73 = call ptr @lean_unsigned_to_nat(i32 noundef 0)
  store ptr %73, ptr %22, align 8, !tbaa !8
  %74 = load ptr, ptr @l___private_Init_System_IOError_0__IO_Error_downCaseFirst___closed__1, align 8, !tbaa !8
  store ptr %74, ptr %23, align 8, !tbaa !8
  %75 = load ptr, ptr %6, align 8, !tbaa !8
  %76 = load ptr, ptr %22, align 8, !tbaa !8
  %77 = load ptr, ptr %23, align 8, !tbaa !8
  %78 = call ptr @l_String_modify(ptr noundef %75, ptr noundef %76, ptr noundef %77)
  store ptr %78, ptr %24, align 8, !tbaa !8
  %79 = load ptr, ptr @l_IO_Error_fopenErrorToString___closed__1, align 8, !tbaa !8
  store ptr %79, ptr %25, align 8, !tbaa !8
  %80 = load ptr, ptr %24, align 8, !tbaa !8
  %81 = load ptr, ptr %25, align 8, !tbaa !8
  %82 = call ptr @lean_string_append(ptr noundef %80, ptr noundef %81)
  store ptr %82, ptr %26, align 8, !tbaa !8
  %83 = load i32, ptr %8, align 4, !tbaa !4
  %84 = call ptr @lean_uint32_to_nat(i32 noundef %83)
  store ptr %84, ptr %27, align 8, !tbaa !8
  %85 = load ptr, ptr %27, align 8, !tbaa !8
  %86 = call ptr @l___private_Init_Data_Repr_0__Nat_reprFast(ptr noundef %85)
  store ptr %86, ptr %28, align 8, !tbaa !8
  %87 = load ptr, ptr %26, align 8, !tbaa !8
  %88 = load ptr, ptr %28, align 8, !tbaa !8
  %89 = call ptr @lean_string_append(ptr noundef %87, ptr noundef %88)
  store ptr %89, ptr %29, align 8, !tbaa !8
  %90 = load ptr, ptr %28, align 8, !tbaa !8
  call void @lean_dec(ptr noundef %90)
  %91 = load ptr, ptr @l_IO_Error_fopenErrorToString___closed__3, align 8, !tbaa !8
  store ptr %91, ptr %30, align 8, !tbaa !8
  %92 = load ptr, ptr %29, align 8, !tbaa !8
  %93 = load ptr, ptr %30, align 8, !tbaa !8
  %94 = call ptr @lean_string_append(ptr noundef %92, ptr noundef %93)
  store ptr %94, ptr %31, align 8, !tbaa !8
  %95 = load ptr, ptr %21, align 8, !tbaa !8
  %96 = load ptr, ptr %22, align 8, !tbaa !8
  %97 = load ptr, ptr %23, align 8, !tbaa !8
  %98 = call ptr @l_String_modify(ptr noundef %95, ptr noundef %96, ptr noundef %97)
  store ptr %98, ptr %32, align 8, !tbaa !8
  %99 = load ptr, ptr %31, align 8, !tbaa !8
  %100 = load ptr, ptr %32, align 8, !tbaa !8
  %101 = call ptr @lean_string_append(ptr noundef %99, ptr noundef %100)
  store ptr %101, ptr %33, align 8, !tbaa !8
  %102 = load ptr, ptr %32, align 8, !tbaa !8
  call void @lean_dec(ptr noundef %102)
  %103 = load ptr, ptr @l_IO_Error_fopenErrorToString___closed__2, align 8, !tbaa !8
  store ptr %103, ptr %34, align 8, !tbaa !8
  %104 = load ptr, ptr %33, align 8, !tbaa !8
  %105 = load ptr, ptr %34, align 8, !tbaa !8
  %106 = call ptr @lean_string_append(ptr noundef %104, ptr noundef %105)
  store ptr %106, ptr %35, align 8, !tbaa !8
  %107 = load ptr, ptr %35, align 8, !tbaa !8
  %108 = load ptr, ptr %7, align 8, !tbaa !8
  %109 = call ptr @lean_string_append(ptr noundef %107, ptr noundef %108)
  store ptr %109, ptr %36, align 8, !tbaa !8
  %110 = load ptr, ptr %36, align 8, !tbaa !8
  store ptr %110, ptr %5, align 8
  call void @llvm.lifetime.end.p0(i64 8, ptr %36) #7
  call void @llvm.lifetime.end.p0(i64 8, ptr %35) #7
  call void @llvm.lifetime.end.p0(i64 8, ptr %34) #7
  call void @llvm.lifetime.end.p0(i64 8, ptr %33) #7
  call void @llvm.lifetime.end.p0(i64 8, ptr %32) #7
  call void @llvm.lifetime.end.p0(i64 8, ptr %31) #7
  call void @llvm.lifetime.end.p0(i64 8, ptr %30) #7
  call void @llvm.lifetime.end.p0(i64 8, ptr %29) #7
  call void @llvm.lifetime.end.p0(i64 8, ptr %28) #7
  call void @llvm.lifetime.end.p0(i64 8, ptr %27) #7
  call void @llvm.lifetime.end.p0(i64 8, ptr %26) #7
  call void @llvm.lifetime.end.p0(i64 8, ptr %25) #7
  call void @llvm.lifetime.end.p0(i64 8, ptr %24) #7
  call void @llvm.lifetime.end.p0(i64 8, ptr %23) #7
  call void @llvm.lifetime.end.p0(i64 8, ptr %22) #7
  call void @llvm.lifetime.end.p0(i64 8, ptr %21) #7
  br label %111

111:                                              ; preds = %68, %41
  %112 = load ptr, ptr %5, align 8
  ret ptr %112
}