; Function Attrs: nounwind uwtable
define ptr @l_IO_Error_fopenErrorToString(ptr noundef %0, ptr noundef %1, i32 noundef %2, ptr noundef %3) local_unnamed_addr #0 {
  %5 = ptrtoint ptr %3 to i64
  %6 = and i64 %5, 1
  %.not.i51 = icmp eq i64 %6, 0
  br i1 %.not.i51, label %10, label %7

7:                                                ; preds = %4
  %8 = lshr i64 %5, 1
  %9 = trunc i64 %8 to i32
  br label %lean_obj_tag.exit

10:                                               ; preds = %4
  %11 = getelementptr i8, ptr %3, i64 4
  %.val.i = load i32, ptr %11, align 4
  %12 = lshr i32 %.val.i, 24
  br label %lean_obj_tag.exit

lean_obj_tag.exit:                                ; preds = %7, %10
  %.0.i = phi i32 [ %9, %7 ], [ %12, %10 ]
  %13 = icmp eq i32 %.0.i, 0
  br i1 %13, label %14, label %34

14:                                               ; preds = %lean_obj_tag.exit
  %15 = load ptr, ptr @l___private_Init_System_IOError_0__IO_Error_downCaseFirst___closed__1, align 8, !tbaa !9
  %16 = tail call ptr @l_String_modify(ptr noundef %0, ptr noundef nonnull inttoptr (i64 1 to ptr), ptr noundef %15) #4
  %17 = load ptr, ptr @l_IO_Error_fopenErrorToString___closed__1, align 8, !tbaa !9
  %18 = tail call ptr @lean_string_append(ptr noundef %16, ptr noundef %17) #4
  %19 = zext i32 %2 to i64
  %20 = shl nuw nsw i64 %19, 1
  %21 = or disjoint i64 %20, 1
  %22 = inttoptr i64 %21 to ptr
  %23 = tail call ptr @l___private_Init_Data_Repr_0__Nat_reprFast(ptr noundef nonnull %22) #4
  %24 = tail call ptr @lean_string_append(ptr noundef %18, ptr noundef %23) #4
  %25 = ptrtoint ptr %23 to i64
  %26 = and i64 %25, 1
  %.not57 = icmp eq i64 %26, 0
  br i1 %.not57, label %27, label %lean_dec.exit44

27:                                               ; preds = %14
  %28 = load i32, ptr %23, align 4, !tbaa !4
  %29 = icmp sgt i32 %28, 1
  br i1 %29, label %30, label %32, !prof !14

30:                                               ; preds = %27
  %31 = add nsw i32 %28, -1
  store i32 %31, ptr %23, align 4, !tbaa !4
  br label %lean_dec.exit44

32:                                               ; preds = %27
  %.not.i = icmp eq i32 %28, 0
  br i1 %.not.i, label %lean_dec.exit44, label %33

33:                                               ; preds = %32
  tail call void @lean_dec_ref_cold(ptr noundef nonnull %23) #4
  br label %lean_dec.exit44

34:                                               ; preds = %lean_obj_tag.exit
  %35 = getelementptr inbounds nuw i8, ptr %3, i64 8
  %36 = load ptr, ptr %35, align 8, !tbaa !9
  %37 = ptrtoint ptr %36 to i64
  %38 = and i64 %37, 1
  %.not = icmp eq i64 %38, 0
  br i1 %.not, label %39, label %lean_inc.exit

39:                                               ; preds = %34
  %.val.i52 = load i32, ptr %36, align 4, !tbaa !4
  %40 = icmp sgt i32 %.val.i52, 0
  br i1 %40, label %41, label %43, !prof !14

41:                                               ; preds = %39
  %42 = add nuw i32 %.val.i52, 1
  store i32 %42, ptr %36, align 4, !tbaa !4
  br label %lean_inc.exit

43:                                               ; preds = %39
  %.not.i53 = icmp eq i32 %.val.i52, 0
  br i1 %.not.i53, label %lean_inc.exit, label %44

44:                                               ; preds = %43
  tail call void @lean_inc_ref_cold(ptr noundef nonnull %36) #4
  br label %lean_inc.exit

lean_inc.exit:                                    ; preds = %44, %43, %41, %34
  br i1 %.not.i51, label %45, label %lean_dec.exit43

45:                                               ; preds = %lean_inc.exit
  %46 = load i32, ptr %3, align 4, !tbaa !4
  %47 = icmp sgt i32 %46, 1
  br i1 %47, label %48, label %50, !prof !14

48:                                               ; preds = %45
  %49 = add nsw i32 %46, -1
  store i32 %49, ptr %3, align 4, !tbaa !4
  br label %lean_dec.exit43

50:                                               ; preds = %45
  %.not.i45 = icmp eq i32 %46, 0
  br i1 %.not.i45, label %lean_dec.exit43, label %51

51:                                               ; preds = %50
  tail call void @lean_dec_ref_cold(ptr noundef nonnull %3) #4
  br label %lean_dec.exit43

lean_dec.exit43:                                  ; preds = %51, %50, %48, %lean_inc.exit
  %52 = load ptr, ptr @l___private_Init_System_IOError_0__IO_Error_downCaseFirst___closed__1, align 8, !tbaa !9
  %53 = tail call ptr @l_String_modify(ptr noundef %0, ptr noundef nonnull inttoptr (i64 1 to ptr), ptr noundef %52) #4
  %54 = load ptr, ptr @l_IO_Error_fopenErrorToString___closed__1, align 8, !tbaa !9
  %55 = tail call ptr @lean_string_append(ptr noundef %53, ptr noundef %54) #4
  %56 = zext i32 %2 to i64
  %57 = shl nuw nsw i64 %56, 1
  %58 = or disjoint i64 %57, 1
  %59 = inttoptr i64 %58 to ptr
  %60 = tail call ptr @l___private_Init_Data_Repr_0__Nat_reprFast(ptr noundef nonnull %59) #4
  %61 = tail call ptr @lean_string_append(ptr noundef %55, ptr noundef %60) #4
  %62 = ptrtoint ptr %60 to i64
  %63 = and i64 %62, 1
  %.not55 = icmp eq i64 %63, 0
  br i1 %.not55, label %64, label %lean_dec.exit42

64:                                               ; preds = %lean_dec.exit43
  %65 = load i32, ptr %60, align 4, !tbaa !4
  %66 = icmp sgt i32 %65, 1
  br i1 %66, label %67, label %69, !prof !14

67:                                               ; preds = %64
  %68 = add nsw i32 %65, -1
  store i32 %68, ptr %60, align 4, !tbaa !4
  br label %lean_dec.exit42

69:                                               ; preds = %64
  %.not.i47 = icmp eq i32 %65, 0
  br i1 %.not.i47, label %lean_dec.exit42, label %70

70:                                               ; preds = %69
  tail call void @lean_dec_ref_cold(ptr noundef nonnull %60) #4
  br label %lean_dec.exit42

lean_dec.exit42:                                  ; preds = %70, %69, %67, %lean_dec.exit43
  %71 = load ptr, ptr @l_IO_Error_fopenErrorToString___closed__3, align 8, !tbaa !9
  %72 = tail call ptr @lean_string_append(ptr noundef %61, ptr noundef %71) #4
  %73 = tail call ptr @l_String_modify(ptr noundef %36, ptr noundef nonnull inttoptr (i64 1 to ptr), ptr noundef %52) #4
  %74 = tail call ptr @lean_string_append(ptr noundef %72, ptr noundef %73) #4
  %75 = ptrtoint ptr %73 to i64
  %76 = and i64 %75, 1
  %.not56 = icmp eq i64 %76, 0
  br i1 %.not56, label %77, label %lean_dec.exit44

77:                                               ; preds = %lean_dec.exit42
  %78 = load i32, ptr %73, align 4, !tbaa !4
  %79 = icmp sgt i32 %78, 1
  br i1 %79, label %80, label %82, !prof !14

80:                                               ; preds = %77
  %81 = add nsw i32 %78, -1
  store i32 %81, ptr %73, align 4, !tbaa !4
  br label %lean_dec.exit44

82:                                               ; preds = %77
  %.not.i49 = icmp eq i32 %78, 0
  br i1 %.not.i49, label %lean_dec.exit44, label %83

83:                                               ; preds = %82
  tail call void @lean_dec_ref_cold(ptr noundef nonnull %73) #4
  br label %lean_dec.exit44

lean_dec.exit44:                                  ; preds = %lean_dec.exit42, %80, %82, %83, %14, %30, %32, %33
  %.sink58 = phi ptr [ %24, %33 ], [ %24, %32 ], [ %24, %30 ], [ %24, %14 ], [ %74, %83 ], [ %74, %82 ], [ %74, %80 ], [ %74, %lean_dec.exit42 ]
  %84 = load ptr, ptr @l_IO_Error_fopenErrorToString___closed__2, align 8, !tbaa !9
  %85 = tail call ptr @lean_string_append(ptr noundef %.sink58, ptr noundef %84) #4
  %86 = tail call ptr @lean_string_append(ptr noundef %85, ptr noundef %1) #4
  ret ptr %86
}